target datalayout = "e-m:e-p270:32:32-p271:32:32-p272:64:64-i64:64-i128:128-f80:128-n8:16:32:64-S128"
target triple = "x86_64-pc-linux-gnu"

; Function Attrs: inlinehint nounwind uwtable
define internal zeroext i8 @mbedtls_md_get_size_from_type(i32 noundef %0) #3 {
  %2 = alloca i32, align 4
  store i32 %0, ptr %2, align 4, !tbaa !12
  %3 = load i32, ptr %2, align 4, !tbaa !12
  %4 = call ptr @mbedtls_md_info_from_type(i32 noundef %3)
  %5 = call zeroext i8 @mbedtls_md_get_size(ptr noundef %4)
  ret i8 %5
}

; Function Attrs: nounwind uwtable
define internal i32 @rsa_rsassa_pkcs1_v15_encode(i32 noundef %0, i32 noundef %1, ptr noundef %2, i64 noundef %3, ptr noundef %4) #0 {
  %6 = alloca i32, align 4
  %7 = alloca i32, align 4
  %8 = alloca i32, align 4
  %9 = alloca ptr, align 8
  %10 = alloca i64, align 8
  %11 = alloca ptr, align 8
  %12 = alloca i64, align 8
  %13 = alloca i64, align 8
  %14 = alloca ptr, align 8
  %15 = alloca ptr, align 8
  %16 = alloca i8, align 1
  %17 = alloca i32, align 4
  store i32 %0, ptr %7, align 4, !tbaa !12
  store i32 %1, ptr %8, align 4, !tbaa !12
  store ptr %2, ptr %9, align 8, !tbaa !8
  store i64 %3, ptr %10, align 8, !tbaa !10
  store ptr %4, ptr %11, align 8, !tbaa !8
  call void @llvm.lifetime.start.p0(i64 8, ptr %12) #9
  store i64 0, ptr %12, align 8, !tbaa !10
  call void @llvm.lifetime.start.p0(i64 8, ptr %13) #9
  %18 = load i64, ptr %10, align 8, !tbaa !10
  store i64 %18, ptr %13, align 8, !tbaa !10
  call void @llvm.lifetime.start.p0(i64 8, ptr %14) #9
  %19 = load ptr, ptr %11, align 8, !tbaa !8
  store ptr %19, ptr %14, align 8, !tbaa !8
  call void @llvm.lifetime.start.p0(i64 8, ptr %15) #9
  store ptr null, ptr %15, align 8, !tbaa !8
  %20 = load i32, ptr %7, align 4, !tbaa !12
  %21 = icmp ne i32 %20, 0
  br i1 %21, label %22, label %83

22:                                               ; preds = %5
  call void @llvm.lifetime.start.p0(i64 1, ptr %16) #9
  %23 = load i32, ptr %7, align 4, !tbaa !12
  %24 = call zeroext i8 @mbedtls_md_get_size_from_type(i32 noundef %23)
  store i8 %24, ptr %16, align 1, !tbaa !33
  %25 = load i8, ptr %16, align 1, !tbaa !33
  %26 = zext i8 %25 to i32
  %27 = icmp eq i32 %26, 0
  br i1 %27, label %28, label %29

28:                                               ; preds = %22
  store i32 -16512, ptr %6, align 4
  store i32 1, ptr %17, align 4
  br label %80

29:                                               ; preds = %22
  %30 = load i32, ptr %7, align 4, !tbaa !12
  %31 = call i32 @mbedtls_oid_get_oid_by_md(i32 noundef %30, ptr noundef %15, ptr noundef %12)
  %32 = icmp ne i32 %31, 0
  br i1 %32, label %33, label %34

33:                                               ; preds = %29
  store i32 -16512, ptr %6, align 4
  store i32 1, ptr %17, align 4
  br label %80

34:                                               ; preds = %29
  %35 = load i32, ptr %8, align 4, !tbaa !12
  %36 = load i8, ptr %16, align 1, !tbaa !33
  %37 = zext i8 %36 to i32
  %38 = icmp ne i32 %35, %37
  br i1 %38, label %39, label %40

39:                                               ; preds = %34
  store i32 -16512, ptr %6, align 4
  store i32 1, ptr %17, align 4
  br label %80

40:                                               ; preds = %34
  %41 = load i32, ptr %8, align 4, !tbaa !12
  %42 = add i32 8, %41
  %43 = zext i32 %42 to i64
  %44 = load i64, ptr %12, align 8, !tbaa !10
  %45 = add i64 %43, %44
  %46 = icmp uge i64 %45, 128
  br i1 %46, label %62, label %47

47:                                               ; preds = %40
  %48 = load i32, ptr %8, align 4, !tbaa !12
  %49 = add i32 10, %48
  %50 = load i32, ptr %8, align 4, !tbaa !12
  %51 = icmp ult i32 %49, %50
  br i1 %51, label %62, label %52

52:                                               ; preds = %47
  %53 = load i32, ptr %8, align 4, !tbaa !12
  %54 = add i32 10, %53
  %55 = zext i32 %54 to i64
  %56 = load i64, ptr %12, align 8, !tbaa !10
  %57 = add i64 %55, %56
  %58 = load i32, ptr %8, align 4, !tbaa !12
  %59 = add i32 10, %58
  %60 = zext i32 %59 to i64
  %61 = icmp ult i64 %57, %60
  br i1 %61, label %62, label %63

62:                                               ; preds = %52, %47, %40
  store i32 -16512, ptr %6, align 4
  store i32 1, ptr %17, align 4
  br label %80

63:                                               ; preds = %52
  %64 = load i64, ptr %13, align 8, !tbaa !10
  %65 = load i32, ptr %8, align 4, !tbaa !12
  %66 = add i32 10, %65
  %67 = zext i32 %66 to i64
  %68 = load i64, ptr %12, align 8, !tbaa !10
  %69 = add i64 %67, %68
  %70 = icmp ult i64 %64, %69
  br i1 %70, label %71, label %72

71:                                               ; preds = %63
  store i32 -16512, ptr %6, align 4
  store i32 1, ptr %17, align 4
  br label %80

72:                                               ; preds = %63
  %73 = load i32, ptr %8, align 4, !tbaa !12
  %74 = add i32 10, %73
  %75 = zext i32 %74 to i64
  %76 = load i64, ptr %12, align 8, !tbaa !10
  %77 = add i64 %75, %76
  %78 = load i64, ptr %13, align 8, !tbaa !10
  %79 = sub i64 %78, %77
  store i64 %79, ptr %13, align 8, !tbaa !10
  store i32 0, ptr %17, align 4
  br label %80

80:                                               ; preds = %72, %71, %62, %39, %33, %28
  call void @llvm.lifetime.end.p0(i64 1, ptr %16) #9
  %81 = load i32, ptr %17, align 4
  switch i32 %81, label %176 [
    i32 0, label %82
  ]

82:                                               ; preds = %80
  br label %94

83:                                               ; preds = %5
  %84 = load i64, ptr %13, align 8, !tbaa !10
  %85 = load i32, ptr %8, align 4, !tbaa !12
  %86 = zext i32 %85 to i64
  %87 = icmp ult i64 %84, %86
  br i1 %87, label %88, label %89

88:                                               ; preds = %83
  store i32 -16512, ptr %6, align 4
  store i32 1, ptr %17, align 4
  br label %176

89:                                               ; preds = %83
  %90 = load i32, ptr %8, align 4, !tbaa !12
  %91 = zext i32 %90 to i64
  %92 = load i64, ptr %13, align 8, !tbaa !10
  %93 = sub i64 %92, %91
  store i64 %93, ptr %13, align 8, !tbaa !10
  br label %94

94:                                               ; preds = %89, %82
  %95 = load i64, ptr %13, align 8, !tbaa !10
  %96 = icmp ult i64 %95, 11
  br i1 %96, label %97, label %98

97:                                               ; preds = %94
  store i32 -16512, ptr %6, align 4
  store i32 1, ptr %17, align 4
  br label %176

98:                                               ; preds = %94
  %99 = load i64, ptr %13, align 8, !tbaa !10
  %100 = sub i64 %99, 3
  store i64 %100, ptr %13, align 8, !tbaa !10
  %101 = load ptr, ptr %14, align 8, !tbaa !8
  %102 = getelementptr inbounds nuw i8, ptr %101, i32 1
  store ptr %102, ptr %14, align 8, !tbaa !8
  store i8 0, ptr %101, align 1, !tbaa !33
  %103 = load ptr, ptr %14, align 8, !tbaa !8
  %104 = getelementptr inbounds nuw i8, ptr %103, i32 1
  store ptr %104, ptr %14, align 8, !tbaa !8
  store i8 1, ptr %103, align 1, !tbaa !33
  %105 = load ptr, ptr %14, align 8, !tbaa !8
  %106 = load i64, ptr %13, align 8, !tbaa !10
  call void @llvm.memset.p0.i64(ptr align 1 %105, i8 -1, i64 %106, i1 false)
  %107 = load i64, ptr %13, align 8, !tbaa !10
  %108 = load ptr, ptr %14, align 8, !tbaa !8
  %109 = getelementptr inbounds nuw i8, ptr %108, i64 %107
  store ptr %109, ptr %14, align 8, !tbaa !8
  %110 = load ptr, ptr %14, align 8, !tbaa !8
  %111 = getelementptr inbounds nuw i8, ptr %110, i32 1
  store ptr %111, ptr %14, align 8, !tbaa !8
  store i8 0, ptr %110, align 1, !tbaa !33
  %112 = load i32, ptr %7, align 4, !tbaa !12
  %113 = icmp eq i32 %112, 0
  br i1 %113, label %114, label %119

114:                                              ; preds = %98
  %115 = load ptr, ptr %14, align 8, !tbaa !8
  %116 = load ptr, ptr %9, align 8, !tbaa !8
  %117 = load i32, ptr %8, align 4, !tbaa !12
  %118 = zext i32 %117 to i64
  call void @llvm.memcpy.p0.p0.i64(ptr align 1 %115, ptr align 1 %116, i64 %118, i1 false)
  store i32 0, ptr %6, align 4
  store i32 1, ptr %17, align 4
  br label %176

119:                                              ; preds = %98
  %120 = load ptr, ptr %14, align 8, !tbaa !8
  %121 = getelementptr inbounds nuw i8, ptr %120, i32 1
  store ptr %121, ptr %14, align 8, !tbaa !8
  store i8 48, ptr %120, align 1, !tbaa !33
  %122 = load i64, ptr %12, align 8, !tbaa !10
  %123 = add i64 8, %122
  %124 = load i32, ptr %8, align 4, !tbaa !12
  %125 = zext i32 %124 to i64
  %126 = add i64 %123, %125
  %127 = trunc i64 %126 to i8
  %128 = load ptr, ptr %14, align 8, !tbaa !8
  %129 = getelementptr inbounds nuw i8, ptr %128, i32 1
  store ptr %129, ptr %14, align 8, !tbaa !8
  store i8 %127, ptr %128, align 1, !tbaa !33
  %130 = load ptr, ptr %14, align 8, !tbaa !8
  %131 = getelementptr inbounds nuw i8, ptr %130, i32 1
  store ptr %131, ptr %14, align 8, !tbaa !8
  store i8 48, ptr %130, align 1, !tbaa !33
  %132 = load i64, ptr %12, align 8, !tbaa !10
  %133 = add i64 4, %132
  %134 = trunc i64 %133 to i8
  %135 = load ptr, ptr %14, align 8, !tbaa !8
  %136 = getelementptr inbounds nuw i8, ptr %135, i32 1
  store ptr %136, ptr %14, align 8, !tbaa !8
  store i8 %134, ptr %135, align 1, !tbaa !33
  %137 = load ptr, ptr %14, align 8, !tbaa !8
  %138 = getelementptr inbounds nuw i8, ptr %137, i32 1
  store ptr %138, ptr %14, align 8, !tbaa !8
  store i8 6, ptr %137, align 1, !tbaa !33
  %139 = load i64, ptr %12, align 8, !tbaa !10
  %140 = trunc i64 %139 to i8
  %141 = load ptr, ptr %14, align 8, !tbaa !8
  %142 = getelementptr inbounds nuw i8, ptr %141, i32 1
  store ptr %142, ptr %14, align 8, !tbaa !8
  store i8 %140, ptr %141, align 1, !tbaa !33
  %143 = load ptr, ptr %14, align 8, !tbaa !8
  %144 = load ptr, ptr %15, align 8, !tbaa !8
  %145 = load i64, ptr %12, align 8, !tbaa !10
  call void @llvm.memcpy.p0.p0.i64(ptr align 1 %143, ptr align 1 %144, i64 %145, i1 false)
  %146 = load i64, ptr %12, align 8, !tbaa !10
  %147 = load ptr, ptr %14, align 8, !tbaa !8
  %148 = getelementptr inbounds nuw i8, ptr %147, i64 %146
  store ptr %148, ptr %14, align 8, !tbaa !8
  %149 = load ptr, ptr %14, align 8, !tbaa !8
  %150 = getelementptr inbounds nuw i8, ptr %149, i32 1
  store ptr %150, ptr %14, align 8, !tbaa !8
  store i8 5, ptr %149, align 1, !tbaa !33
  %151 = load ptr, ptr %14, align 8, !tbaa !8
  %152 = getelementptr inbounds nuw i8, ptr %151, i32 1
  store ptr %152, ptr %14, align 8, !tbaa !8
  store i8 0, ptr %151, align 1, !tbaa !33
  %153 = load ptr, ptr %14, align 8, !tbaa !8
  %154 = getelementptr inbounds nuw i8, ptr %153, i32 1
  store ptr %154, ptr %14, align 8, !tbaa !8
  store i8 4, ptr %153, align 1, !tbaa !33
  %155 = load i32, ptr %8, align 4, !tbaa !12
  %156 = trunc i32 %155 to i8
  %157 = load ptr, ptr %14, align 8, !tbaa !8
  %158 = getelementptr inbounds nuw i8, ptr %157, i32 1
  store ptr %158, ptr %14, align 8, !tbaa !8
  store i8 %156, ptr %157, align 1, !tbaa !33
  %159 = load ptr, ptr %14, align 8, !tbaa !8
  %160 = load ptr, ptr %9, align 8, !tbaa !8
  %161 = load i32, ptr %8, align 4, !tbaa !12
  %162 = zext i32 %161 to i64
  call void @llvm.memcpy.p0.p0.i64(ptr align 1 %159, ptr align 1 %160, i64 %162, i1 false)
  %163 = load i32, ptr %8, align 4, !tbaa !12
  %164 = load ptr, ptr %14, align 8, !tbaa !8
  %165 = zext i32 %163 to i64
  %166 = getelementptr inbounds nuw i8, ptr %164, i64 %165
  store ptr %166, ptr %14, align 8, !tbaa !8
  %167 = load ptr, ptr %14, align 8, !tbaa !8
  %168 = load ptr, ptr %11, align 8, !tbaa !8
  %169 = load i64, ptr %10, align 8, !tbaa !10
  %170 = getelementptr inbounds nuw i8, ptr %168, i64 %169
  %171 = icmp ne ptr %167, %170
  br i1 %171, label %172, label %175

172:                                              ; preds = %119
  %173 = load ptr, ptr %11, align 8, !tbaa !8
  %174 = load i64, ptr %10, align 8, !tbaa !10
  call void @mbedtls_platform_zeroize(ptr noundef %173, i64 noundef %174)
  store i32 -16512, ptr %6, align 4
  store i32 1, ptr %17, align 4
  br label %176

175:                                              ; preds = %119
  store i32 0, ptr %6, align 4
  store i32 1, ptr %17, align 4
  br label %176

176:                                              ; preds = %175, %172, %114, %97, %88, %80
  call void @llvm.lifetime.end.p0(i64 8, ptr %15) #9
  call void @llvm.lifetime.end.p0(i64 8, ptr %14) #9
  call void @llvm.lifetime.end.p0(i64 8, ptr %13) #9
  call void @llvm.lifetime.end.p0(i64 8, ptr %12) #9
  %177 = load i32, ptr %6, align 4
  ret i32 %177
}