; Function Attrs: nounwind uwtable
define internal fastcc range(i32 -16512, 1) i32 @rsa_rsassa_pkcs1_v15_encode(i32 noundef %0, i32 noundef %1, ptr noundef readonly captures(none) %2, i64 noundef %3, ptr noundef %4) unnamed_addr #0 {
  %6 = alloca i64, align 8
  %7 = alloca ptr, align 8
  call void @llvm.lifetime.start.p0(i64 8, ptr nonnull %6) #14
  store i64 0, ptr %6, align 8, !tbaa !8
  call void @llvm.lifetime.start.p0(i64 8, ptr nonnull %7) #14
  store ptr null, ptr %7, align 8, !tbaa !3
  %.not = icmp eq i32 %0, 0
  br i1 %.not, label %27, label %8

8:                                                ; preds = %5
  %9 = tail call ptr @mbedtls_md_info_from_type(i32 noundef %0) #14
  %10 = tail call zeroext i8 @mbedtls_md_get_size(ptr noundef %9) #14
  %11 = icmp eq i8 %10, 0
  br i1 %11, label %.thread, label %12

12:                                               ; preds = %8
  %13 = zext i8 %10 to i32
  %14 = call i32 @mbedtls_oid_get_oid_by_md(i32 noundef %0, ptr noundef nonnull %7, ptr noundef nonnull %6) #14
  %.not70 = icmp eq i32 %14, 0
  %.not71 = icmp eq i32 %1, %13
  %or.cond = and i1 %.not71, %.not70
  br i1 %or.cond, label %15, label %.thread

15:                                               ; preds = %12
  %16 = add nuw nsw i32 %1, 8
  %17 = zext nneg i32 %16 to i64
  %18 = load i64, ptr %6, align 8, !tbaa !8
  %19 = add i64 %18, %17
  %20 = icmp ugt i64 %19, 127
  br i1 %20, label %.thread, label %21

21:                                               ; preds = %15
  %22 = add nuw nsw i32 %1, 10
  %23 = zext nneg i32 %22 to i64
  %24 = add i64 %18, %23
  %25 = icmp uge i64 %24, %23
  %26 = icmp uge i64 %3, %24
  %or.cond73.not = and i1 %25, %26
  br i1 %or.cond73.not, label %30, label %.thread

27:                                               ; preds = %5
  %28 = zext i32 %1 to i64
  %29 = icmp ult i64 %3, %28
  br i1 %29, label %.thread, label %30

30:                                               ; preds = %27, %21
  %31 = phi i64 [ %18, %21 ], [ 0, %27 ]
  %.pn = phi i64 [ %24, %21 ], [ %28, %27 ]
  %.161 = sub nuw i64 %3, %.pn
  %32 = icmp ult i64 %.161, 11
  br i1 %32, label %.thread, label %33

33:                                               ; preds = %30
  %34 = add i64 %.161, -3
  %35 = getelementptr inbounds nuw i8, ptr %4, i64 1
  store i8 0, ptr %4, align 1, !tbaa !23
  %36 = getelementptr inbounds nuw i8, ptr %4, i64 2
  store i8 1, ptr %35, align 1, !tbaa !23
  call void @llvm.memset.p0.i64(ptr nonnull align 1 %36, i8 -1, i64 %34, i1 false)
  %37 = getelementptr inbounds nuw i8, ptr %36, i64 %34
  %38 = getelementptr inbounds nuw i8, ptr %37, i64 1
  store i8 0, ptr %37, align 1, !tbaa !23
  br i1 %.not, label %39, label %41

39:                                               ; preds = %33
  %40 = zext i32 %1 to i64
  call void @llvm.memcpy.p0.p0.i64(ptr nonnull align 1 %38, ptr align 1 %2, i64 %40, i1 false)
  br label %.thread

41:                                               ; preds = %33
  %42 = getelementptr inbounds nuw i8, ptr %37, i64 2
  store i8 48, ptr %38, align 1, !tbaa !23
  %43 = zext i32 %1 to i64
  %44 = add nuw nsw i64 %43, 8
  %45 = add i64 %44, %31
  %46 = trunc i64 %45 to i8
  %47 = getelementptr inbounds nuw i8, ptr %36, i64 %.161
  store i8 %46, ptr %42, align 1, !tbaa !23
  %48 = getelementptr inbounds nuw i8, ptr %47, i64 1
  store i8 48, ptr %47, align 1, !tbaa !23
  %49 = trunc i64 %31 to i8
  %50 = add i8 %49, 4
  %51 = getelementptr inbounds nuw i8, ptr %47, i64 2
  store i8 %50, ptr %48, align 1, !tbaa !23
  %52 = getelementptr inbounds nuw i8, ptr %47, i64 3
  store i8 6, ptr %51, align 1, !tbaa !23
  %53 = getelementptr inbounds nuw i8, ptr %47, i64 4
  store i8 %49, ptr %52, align 1, !tbaa !23
  %54 = load ptr, ptr %7, align 8, !tbaa !3
  call void @llvm.memcpy.p0.p0.i64(ptr nonnull align 1 %53, ptr align 1 %54, i64 %31, i1 false)
  %55 = getelementptr inbounds nuw i8, ptr %53, i64 %31
  %56 = getelementptr inbounds nuw i8, ptr %55, i64 1
  store i8 5, ptr %55, align 1, !tbaa !23
  %57 = getelementptr inbounds nuw i8, ptr %55, i64 2
  store i8 0, ptr %56, align 1, !tbaa !23
  %58 = getelementptr inbounds nuw i8, ptr %55, i64 3
  store i8 4, ptr %57, align 1, !tbaa !23
  %59 = trunc i32 %1 to i8
  %60 = getelementptr inbounds nuw i8, ptr %55, i64 4
  store i8 %59, ptr %58, align 1, !tbaa !23
  call void @llvm.memcpy.p0.p0.i64(ptr nonnull align 1 %60, ptr align 1 %2, i64 %43, i1 false)
  %61 = getelementptr inbounds nuw i8, ptr %60, i64 %43
  %62 = getelementptr inbounds nuw i8, ptr %4, i64 %3
  %.not72 = icmp eq ptr %61, %62
  br i1 %.not72, label %.thread, label %63

63:                                               ; preds = %41
  call void @mbedtls_platform_zeroize(ptr noundef nonnull %4, i64 noundef %3) #14
  br label %.thread

.thread:                                          ; preds = %15, %12, %8, %41, %30, %27, %21, %63, %39
  %.1 = phi i32 [ 0, %39 ], [ -16512, %63 ], [ -16512, %21 ], [ -16512, %27 ], [ -16512, %30 ], [ 0, %41 ], [ -16512, %8 ], [ -16512, %12 ], [ -16512, %15 ]
  call void @llvm.lifetime.end.p0(i64 8, ptr nonnull %7) #14
  call void @llvm.lifetime.end.p0(i64 8, ptr nonnull %6) #14
  ret i32 %.1
}